; Function Attrs: mustprogress nofree norecurse nosync nounwind willreturn memory(readwrite, inaccessiblemem: none) uwtable
define dso_local void @_ZN11V3GraphEdge11relinkFrompEP13V3GraphVertex(ptr noundef nonnull align 8 dereferenceable(72) %0, ptr noundef %1) #14 align 2 {
  %3 = getelementptr inbounds nuw i8, ptr %0, i64 40
  %4 = load ptr, ptr %3, align 8, !tbaa !27
  %5 = getelementptr inbounds nuw i8, ptr %4, i64 24
  %6 = getelementptr inbounds nuw i8, ptr %0, i64 8
  %7 = load ptr, ptr %6, align 8, !tbaa !31
  %.not.i = icmp eq ptr %7, null
  %.phi.trans.insert.i = getelementptr inbounds nuw i8, ptr %0, i64 16
  %.pre.i = load ptr, ptr %.phi.trans.insert.i, align 8, !tbaa !32
  br i1 %.not.i, label %._crit_edge.i, label %8

8:                                                ; preds = %2
  %9 = getelementptr inbounds nuw i8, ptr %7, i64 16
  store ptr %.pre.i, ptr %9, align 8, !tbaa !32
  br label %._crit_edge.i

._crit_edge.i:                                    ; preds = %8, %2
  %.not15.i = icmp eq ptr %.pre.i, null
  br i1 %.not15.i, label %12, label %10

10:                                               ; preds = %._crit_edge.i
  %11 = getelementptr inbounds nuw i8, ptr %.pre.i, i64 8
  store ptr %7, ptr %11, align 8, !tbaa !31
  br label %12

12:                                               ; preds = %10, %._crit_edge.i
  %13 = load ptr, ptr %5, align 8, !tbaa !26
  %14 = icmp eq ptr %13, %0
  br i1 %14, label %15, label %17

15:                                               ; preds = %12
  %16 = load ptr, ptr %6, align 8, !tbaa !31
  store ptr %16, ptr %5, align 8, !tbaa !26
  br label %17

17:                                               ; preds = %15, %12
  %18 = getelementptr inbounds nuw i8, ptr %4, i64 32
  %19 = load ptr, ptr %18, align 8, !tbaa !33
  %20 = icmp eq ptr %19, %0
  br i1 %20, label %21, label %_ZN6V3ListI11V3GraphEdgeXadL_ZNS0_6oLinksEvEES0_E6unlinkEPKS0_.exit

21:                                               ; preds = %17
  store ptr %.pre.i, ptr %18, align 8, !tbaa !33
  br label %_ZN6V3ListI11V3GraphEdgeXadL_ZNS0_6oLinksEvEES0_E6unlinkEPKS0_.exit

_ZN6V3ListI11V3GraphEdgeXadL_ZNS0_6oLinksEvEES0_E6unlinkEPKS0_.exit: ; preds = %17, %21
  %22 = getelementptr inbounds nuw i8, ptr %0, i64 16
  store i64 0, ptr %22, align 8
  store ptr %1, ptr %3, align 8, !tbaa !27
  %23 = getelementptr inbounds nuw i8, ptr %1, i64 24
  store ptr null, ptr %6, align 8, !tbaa !31
  %24 = getelementptr inbounds nuw i8, ptr %1, i64 32
  %25 = load ptr, ptr %24, align 8, !tbaa !33
  store ptr %25, ptr %.phi.trans.insert.i, align 8, !tbaa !32
  %.not.i2 = icmp eq ptr %25, null
  br i1 %.not.i2, label %28, label %26

26:                                               ; preds = %_ZN6V3ListI11V3GraphEdgeXadL_ZNS0_6oLinksEvEES0_E6unlinkEPKS0_.exit
  %27 = getelementptr inbounds nuw i8, ptr %25, i64 8
  store ptr %0, ptr %27, align 8, !tbaa !31
  br label %28

28:                                               ; preds = %26, %_ZN6V3ListI11V3GraphEdgeXadL_ZNS0_6oLinksEvEES0_E6unlinkEPKS0_.exit
  store ptr %0, ptr %24, align 8, !tbaa !33
  %29 = load ptr, ptr %23, align 8, !tbaa !26
  %.not6.i = icmp eq ptr %29, null
  br i1 %.not6.i, label %30, label %_ZN6V3ListI11V3GraphEdgeXadL_ZNS0_6oLinksEvEES0_E8linkBackEPKS0_.exit

30:                                               ; preds = %28
  store ptr %0, ptr %23, align 8, !tbaa !26
  br label %_ZN6V3ListI11V3GraphEdgeXadL_ZNS0_6oLinksEvEES0_E8linkBackEPKS0_.exit

_ZN6V3ListI11V3GraphEdgeXadL_ZNS0_6oLinksEvEES0_E8linkBackEPKS0_.exit: ; preds = %28, %30
  ret void
}